target datalayout = "e-m:e-p270:32:32-p271:32:32-p272:64:64-i64:64-i128:128-f80:128-n8:16:32:64-S128"
target triple = "x86_64-pc-linux-gnu"

%struct.pref = type { i32 }

@.str.27 = private unnamed_addr constant [5 x i8] c":set\00", align 1
@.str.28 = private unnamed_addr constant [6 x i8] c"hints\00", align 1
@pref = internal global %struct.pref zeroinitializer, align 4
@.str.29 = private unnamed_addr constant [8 x i8] c"nohints\00", align 1
@.str.30 = private unnamed_addr constant [37 x i8] c"%sunknown redis-cli preference '%s'\0A\00", align 1
@.str.31 = private unnamed_addr constant [1 x i8] zeroinitializer, align 1
@.str.32 = private unnamed_addr constant [14 x i8] c".redisclirc: \00", align 1
@.str.33 = private unnamed_addr constant [43 x i8] c"%sunknown redis-cli internal command '%s'\0A\00", align 1
@.str.34 = private unnamed_addr constant [16 x i8] c"REDISCLI_RCFILE\00", align 1
@.str.35 = private unnamed_addr constant [12 x i8] c".redisclirc\00", align 1
@.str.36 = private unnamed_addr constant [2 x i8] c"r\00", align 1
@.str.164 = private unnamed_addr constant [10 x i8] c"/dev/null\00", align 1
@.str.165 = private unnamed_addr constant [5 x i8] c"HOME\00", align 1
@.str.166 = private unnamed_addr constant [6 x i8] c"%s/%s\00", align 1

; Function Attrs: nounwind uwtable
define dso_local void @cliSetPreferences(ptr noundef %0, i32 noundef %1, i32 noundef %2) #0 {
  %4 = alloca ptr, align 8
  %5 = alloca i32, align 4
  %6 = alloca i32, align 4
  store ptr %0, ptr %4, align 8, !tbaa !42
  store i32 %1, ptr %5, align 4, !tbaa !10
  store i32 %2, ptr %6, align 4, !tbaa !10
  %7 = load ptr, ptr %4, align 8, !tbaa !42
  %8 = getelementptr inbounds ptr, ptr %7, i64 0
  %9 = load ptr, ptr %8, align 8, !tbaa !5
  %10 = call i32 @strcasecmp(ptr noundef %9, ptr noundef @.str.27) #16
  %11 = icmp ne i32 %10, 0
  br i1 %11, label %39, label %12

12:                                               ; preds = %3
  %13 = load i32, ptr %5, align 4, !tbaa !10
  %14 = icmp sge i32 %13, 2
  br i1 %14, label %15, label %39

15:                                               ; preds = %12
  %16 = load ptr, ptr %4, align 8, !tbaa !42
  %17 = getelementptr inbounds ptr, ptr %16, i64 1
  %18 = load ptr, ptr %17, align 8, !tbaa !5
  %19 = call i32 @strcasecmp(ptr noundef %18, ptr noundef @.str.28) #16
  %20 = icmp ne i32 %19, 0
  br i1 %20, label %22, label %21

21:                                               ; preds = %15
  store i32 1, ptr @pref, align 4, !tbaa !82
  br label %38

22:                                               ; preds = %15
  %23 = load ptr, ptr %4, align 8, !tbaa !42
  %24 = getelementptr inbounds ptr, ptr %23, i64 1
  %25 = load ptr, ptr %24, align 8, !tbaa !5
  %26 = call i32 @strcasecmp(ptr noundef %25, ptr noundef @.str.29) #16
  %27 = icmp ne i32 %26, 0
  br i1 %27, label %29, label %28

28:                                               ; preds = %22
  store i32 0, ptr @pref, align 4, !tbaa !82
  br label %37

29:                                               ; preds = %22
  %30 = load i32, ptr %6, align 4, !tbaa !10
  %31 = icmp ne i32 %30, 0
  %32 = select i1 %31, ptr @.str.31, ptr @.str.32
  %33 = load ptr, ptr %4, align 8, !tbaa !42
  %34 = getelementptr inbounds ptr, ptr %33, i64 1
  %35 = load ptr, ptr %34, align 8, !tbaa !5
  %36 = call i32 (ptr, ...) @printf(ptr noundef @.str.30, ptr noundef %32, ptr noundef %35)
  br label %37

37:                                               ; preds = %29, %28
  br label %38

38:                                               ; preds = %37, %21
  br label %47

39:                                               ; preds = %12, %3
  %40 = load i32, ptr %6, align 4, !tbaa !10
  %41 = icmp ne i32 %40, 0
  %42 = select i1 %41, ptr @.str.31, ptr @.str.32
  %43 = load ptr, ptr %4, align 8, !tbaa !42
  %44 = getelementptr inbounds ptr, ptr %43, i64 0
  %45 = load ptr, ptr %44, align 8, !tbaa !5
  %46 = call i32 (ptr, ...) @printf(ptr noundef @.str.33, ptr noundef %42, ptr noundef %45)
  br label %47

47:                                               ; preds = %39, %38
  ret void
}

; Function Attrs: nounwind uwtable
define internal ptr @getDotfilePath(ptr noundef %0, ptr noundef %1) #0 {
  %3 = alloca ptr, align 8
  %4 = alloca ptr, align 8
  %5 = alloca ptr, align 8
  %6 = alloca ptr, align 8
  %7 = alloca ptr, align 8
  %8 = alloca i32, align 4
  %9 = alloca ptr, align 8
  store ptr %0, ptr %4, align 8, !tbaa !5
  store ptr %1, ptr %5, align 8, !tbaa !5
  call void @llvm.lifetime.start.p0(i64 8, ptr %6) #15
  store ptr null, ptr %6, align 8, !tbaa !5
  call void @llvm.lifetime.start.p0(i64 8, ptr %7) #15
  store ptr null, ptr %7, align 8, !tbaa !5
  %10 = load ptr, ptr %4, align 8, !tbaa !5
  %11 = call ptr @getenv(ptr noundef %10) #15
  store ptr %11, ptr %6, align 8, !tbaa !5
  %12 = load ptr, ptr %6, align 8, !tbaa !5
  %13 = icmp ne ptr %12, null
  br i1 %13, label %14, label %27

14:                                               ; preds = %2
  %15 = load ptr, ptr %6, align 8, !tbaa !5
  %16 = load i8, ptr %15, align 1, !tbaa !79
  %17 = sext i8 %16 to i32
  %18 = icmp ne i32 %17, 0
  br i1 %18, label %19, label %27

19:                                               ; preds = %14
  %20 = load ptr, ptr %6, align 8, !tbaa !5
  %21 = call i32 @strcmp(ptr noundef @.str.164, ptr noundef %20) #16
  %22 = icmp ne i32 %21, 0
  br i1 %22, label %24, label %23

23:                                               ; preds = %19
  store ptr null, ptr %3, align 8
  store i32 1, ptr %8, align 4
  br label %44

24:                                               ; preds = %19
  %25 = load ptr, ptr %6, align 8, !tbaa !5
  %26 = call ptr @hi_sdsnew(ptr noundef %25)
  store ptr %26, ptr %7, align 8, !tbaa !5
  br label %42

27:                                               ; preds = %14, %2
  call void @llvm.lifetime.start.p0(i64 8, ptr %9) #15
  %28 = call ptr @getenv(ptr noundef @.str.165) #15
  store ptr %28, ptr %9, align 8, !tbaa !5
  %29 = load ptr, ptr %9, align 8, !tbaa !5
  %30 = icmp ne ptr %29, null
  br i1 %30, label %31, label %41

31:                                               ; preds = %27
  %32 = load ptr, ptr %9, align 8, !tbaa !5
  %33 = load i8, ptr %32, align 1, !tbaa !79
  %34 = sext i8 %33 to i32
  %35 = icmp ne i32 %34, 0
  br i1 %35, label %36, label %41

36:                                               ; preds = %31
  %37 = call ptr @hi_sdsempty()
  %38 = load ptr, ptr %9, align 8, !tbaa !5
  %39 = load ptr, ptr %5, align 8, !tbaa !5
  %40 = call ptr (ptr, ptr, ...) @hi_sdscatprintf(ptr noundef %37, ptr noundef @.str.166, ptr noundef %38, ptr noundef %39)
  store ptr %40, ptr %7, align 8, !tbaa !5
  br label %41

41:                                               ; preds = %36, %31, %27
  call void @llvm.lifetime.end.p0(i64 8, ptr %9) #15
  br label %42

42:                                               ; preds = %41, %24
  %43 = load ptr, ptr %7, align 8, !tbaa !5
  store ptr %43, ptr %3, align 8
  store i32 1, ptr %8, align 4
  br label %44

44:                                               ; preds = %42, %23
  call void @llvm.lifetime.end.p0(i64 8, ptr %7) #15
  call void @llvm.lifetime.end.p0(i64 8, ptr %6) #15
  %45 = load ptr, ptr %3, align 8
  ret ptr %45
}

; Function Attrs: nounwind uwtable
define dso_local void @cliLoadPreferences() #0 {
  %1 = alloca ptr, align 8
  %2 = alloca i32, align 4
  %3 = alloca ptr, align 8
  %4 = alloca [1024 x i8], align 16
  %5 = alloca ptr, align 8
  %6 = alloca i32, align 4
  call void @llvm.lifetime.start.p0(i64 8, ptr %1) #15
  %7 = call ptr @getDotfilePath(ptr noundef @.str.34, ptr noundef @.str.35)
  store ptr %7, ptr %1, align 8, !tbaa !5
  %8 = load ptr, ptr %1, align 8, !tbaa !5
  %9 = icmp eq ptr %8, null
  br i1 %9, label %10, label %11

10:                                               ; preds = %0
  store i32 1, ptr %2, align 4
  br label %38

11:                                               ; preds = %0
  call void @llvm.lifetime.start.p0(i64 8, ptr %3) #15
  %12 = load ptr, ptr %1, align 8, !tbaa !5
  %13 = call noalias ptr @fopen64(ptr noundef %12, ptr noundef @.str.36)
  store ptr %13, ptr %3, align 8, !tbaa !12
  call void @llvm.lifetime.start.p0(i64 1024, ptr %4) #15
  %14 = load ptr, ptr %3, align 8, !tbaa !12
  %15 = icmp ne ptr %14, null
  br i1 %15, label %16, label %36

16:                                               ; preds = %11
  br label %17

17:                                               ; preds = %30, %16
  %18 = getelementptr inbounds [1024 x i8], ptr %4, i64 0, i64 0
  %19 = load ptr, ptr %3, align 8, !tbaa !12
  %20 = call ptr @fgets(ptr noundef %18, i32 noundef 1024, ptr noundef %19)
  %21 = icmp ne ptr %20, null
  br i1 %21, label %22, label %33

22:                                               ; preds = %17
  call void @llvm.lifetime.start.p0(i64 8, ptr %5) #15
  call void @llvm.lifetime.start.p0(i64 4, ptr %6) #15
  %23 = getelementptr inbounds [1024 x i8], ptr %4, i64 0, i64 0
  %24 = call ptr @hi_sdssplitargs(ptr noundef %23, ptr noundef %6)
  store ptr %24, ptr %5, align 8, !tbaa !42
  %25 = load i32, ptr %6, align 4, !tbaa !10
  %26 = icmp sgt i32 %25, 0
  br i1 %26, label %27, label %30

27:                                               ; preds = %22
  %28 = load ptr, ptr %5, align 8, !tbaa !42
  %29 = load i32, ptr %6, align 4, !tbaa !10
  call void @cliSetPreferences(ptr noundef %28, i32 noundef %29, i32 noundef 0)
  br label %30

30:                                               ; preds = %27, %22
  %31 = load ptr, ptr %5, align 8, !tbaa !42
  %32 = load i32, ptr %6, align 4, !tbaa !10
  call void @hi_sdsfreesplitres(ptr noundef %31, i32 noundef %32)
  call void @llvm.lifetime.end.p0(i64 4, ptr %6) #15
  call void @llvm.lifetime.end.p0(i64 8, ptr %5) #15
  br label %17, !llvm.loop !84

33:                                               ; preds = %17
  %34 = load ptr, ptr %3, align 8, !tbaa !12
  %35 = call i32 @fclose(ptr noundef %34)
  br label %36

36:                                               ; preds = %33, %11
  %37 = load ptr, ptr %1, align 8, !tbaa !5
  call void @hi_sdsfree(ptr noundef %37)
  call void @llvm.lifetime.end.p0(i64 1024, ptr %4) #15
  call void @llvm.lifetime.end.p0(i64 8, ptr %3) #15
  store i32 0, ptr %2, align 4
  br label %38

38:                                               ; preds = %36, %10
  call void @llvm.lifetime.end.p0(i64 8, ptr %1) #15
  %39 = load i32, ptr %2, align 4
  switch i32 %39, label %41 [
    i32 0, label %40
    i32 1, label %40
  ]

40:                                               ; preds = %38, %38
  ret void

41:                                               ; preds = %38
  unreachable
}