; Function Attrs: nounwind uwtable
define dso_local void @cliLoadPreferences() local_unnamed_addr #0 {
  %1 = alloca [1024 x i8], align 16
  %2 = alloca i32, align 4
  %3 = tail call ptr @getenv(ptr noundef nonnull @.str.34) #33
  %.not.i = icmp eq ptr %3, null
  br i1 %.not.i, label %10, label %4

4:                                                ; preds = %0
  %5 = load i8, ptr %3, align 1, !tbaa !67
  %.not14.i = icmp eq i8 %5, 0
  br i1 %.not14.i, label %10, label %6

6:                                                ; preds = %4
  %7 = tail call i32 @strcmp(ptr noundef nonnull dereferenceable(10) @.str.164, ptr noundef nonnull dereferenceable(1) %3) #35
  %.not17.i = icmp eq i32 %7, 0
  br i1 %.not17.i, label %getDotfilePath.exit.thread, label %8

8:                                                ; preds = %6
  %9 = tail call ptr @hi_sdsnew(ptr noundef nonnull %3) #33
  br label %getDotfilePath.exit

10:                                               ; preds = %4, %0
  %11 = tail call ptr @getenv(ptr noundef nonnull @.str.165) #33
  %.not15.i = icmp eq ptr %11, null
  br i1 %.not15.i, label %getDotfilePath.exit.thread, label %12

12:                                               ; preds = %10
  %13 = load i8, ptr %11, align 1, !tbaa !67
  %.not16.i = icmp eq i8 %13, 0
  br i1 %.not16.i, label %getDotfilePath.exit.thread, label %14

14:                                               ; preds = %12
  %15 = tail call ptr @hi_sdsempty() #33
  %16 = tail call ptr (ptr, ptr, ...) @hi_sdscatprintf(ptr noundef %15, ptr noundef nonnull @.str.166, ptr noundef nonnull %11, ptr noundef nonnull @.str.35) #33
  br label %getDotfilePath.exit

getDotfilePath.exit:                              ; preds = %8, %14
  %.0.i = phi ptr [ %9, %8 ], [ %16, %14 ]
  %17 = icmp eq ptr %.0.i, null
  br i1 %17, label %getDotfilePath.exit.thread, label %18

18:                                               ; preds = %getDotfilePath.exit
  %19 = tail call noalias ptr @fopen64(ptr noundef nonnull %.0.i, ptr noundef nonnull @.str.36)
  call void @llvm.lifetime.start.p0(i64 1024, ptr nonnull %1) #33
  %.not = icmp eq ptr %19, null
  br i1 %.not, label %44, label %.preheader

.preheader:                                       ; preds = %18
  %20 = call ptr @fgets(ptr noundef nonnull %1, i32 noundef 1024, ptr noundef nonnull %19)
  %.not911 = icmp eq ptr %20, null
  br i1 %.not911, label %._crit_edge, label %.lr.ph

.lr.ph:                                           ; preds = %.preheader, %cliSetPreferences.exit
  call void @llvm.lifetime.start.p0(i64 4, ptr nonnull %2) #33
  %21 = call ptr @hi_sdssplitargs(ptr noundef nonnull %1, ptr noundef nonnull %2) #33
  %22 = load i32, ptr %2, align 4, !tbaa !22
  %23 = icmp sgt i32 %22, 0
  br i1 %23, label %24, label %cliSetPreferences.exit

24:                                               ; preds = %.lr.ph
  %25 = load ptr, ptr %21, align 8, !tbaa !24
  %26 = call i32 @strcasecmp(ptr noundef %25, ptr noundef nonnull @.str.27) #35
  %27 = icmp eq i32 %26, 0
  %28 = icmp ne i32 %22, 1
  %or.cond.i = and i1 %28, %27
  br i1 %or.cond.i, label %29, label %39

29:                                               ; preds = %24
  %30 = getelementptr inbounds nuw i8, ptr %21, i64 8
  %31 = load ptr, ptr %30, align 8, !tbaa !24
  %32 = call i32 @strcasecmp(ptr noundef %31, ptr noundef nonnull @.str.28) #35
  %.not8.i = icmp eq i32 %32, 0
  br i1 %.not8.i, label %33, label %34

33:                                               ; preds = %29
  store i1 true, ptr @pref.0, align 4
  br label %cliSetPreferences.exit

34:                                               ; preds = %29
  %35 = call i32 @strcasecmp(ptr noundef %31, ptr noundef nonnull @.str.29) #35
  %.not9.i = icmp eq i32 %35, 0
  br i1 %.not9.i, label %36, label %37

36:                                               ; preds = %34
  store i1 false, ptr @pref.0, align 4
  br label %cliSetPreferences.exit

37:                                               ; preds = %34
  %38 = call i32 (ptr, ...) @printf(ptr noundef nonnull dereferenceable(1) @.str.30, ptr noundef nonnull @.str.32, ptr noundef %31)
  br label %cliSetPreferences.exit

39:                                               ; preds = %24
  %40 = call i32 (ptr, ...) @printf(ptr noundef nonnull dereferenceable(1) @.str.33, ptr noundef nonnull @.str.32, ptr noundef %25)
  br label %cliSetPreferences.exit

cliSetPreferences.exit:                           ; preds = %39, %37, %36, %33, %.lr.ph
  %41 = load i32, ptr %2, align 4, !tbaa !22
  call void @hi_sdsfreesplitres(ptr noundef %21, i32 noundef %41) #33
  call void @llvm.lifetime.end.p0(i64 4, ptr nonnull %2) #33
  %42 = call ptr @fgets(ptr noundef nonnull %1, i32 noundef 1024, ptr noundef nonnull %19)
  %.not9 = icmp eq ptr %42, null
  br i1 %.not9, label %._crit_edge, label %.lr.ph, !llvm.loop !70

._crit_edge:                                      ; preds = %cliSetPreferences.exit, %.preheader
  %43 = call i32 @fclose(ptr noundef nonnull %19)
  br label %44

44:                                               ; preds = %._crit_edge, %18
  call void @hi_sdsfree(ptr noundef nonnull %.0.i) #33
  call void @llvm.lifetime.end.p0(i64 1024, ptr nonnull %1) #33
  br label %getDotfilePath.exit.thread

getDotfilePath.exit.thread:                       ; preds = %10, %12, %6, %getDotfilePath.exit, %44
  ret void
}